; Function Attrs: nounwind uwtable
define range(i32 -1, 1) i32 @H5HF__hdr_finish_init(ptr noundef %0) local_unnamed_addr #0 {
  %2 = load i8, ptr @H5HF_init_g, align 1, !tbaa !3, !range !7, !noundef !8
  %3 = trunc nuw i8 %2 to i1
  %4 = load i8, ptr @H5_libterm_g, align 1, !range !7
  %5 = trunc nuw i8 %4 to i1
  %6 = xor i1 %5, true
  %7 = select i1 %3, i1 true, i1 %6
  br i1 %7, label %8, label %22, !prof !9

8:                                                ; preds = %1
  %9 = tail call i32 @H5HF__hdr_finish_init_phase1(ptr noundef %0)
  %10 = icmp slt i32 %9, 0
  br i1 %10, label %11, label %15

11:                                               ; preds = %8
  %12 = load i64, ptr @H5E_HEAP_g, align 8, !tbaa !10
  %13 = load i64, ptr @H5E_CANTINIT_g, align 8, !tbaa !10
  %14 = tail call i32 (ptr, ptr, i32, i64, i64, ptr, ...) @H5E_printf_stack(ptr noundef nonnull @.str, ptr noundef nonnull @__func__.H5HF__hdr_finish_init, i32 noundef 280, i64 noundef %12, i64 noundef %13, ptr noundef nonnull @.str.7) #7
  br label %22

15:                                               ; preds = %8
  %16 = tail call i32 @H5HF__hdr_finish_init_phase2(ptr noundef %0)
  %17 = icmp slt i32 %16, 0
  br i1 %17, label %18, label %22

18:                                               ; preds = %15
  %19 = load i64, ptr @H5E_HEAP_g, align 8, !tbaa !10
  %20 = load i64, ptr @H5E_CANTINIT_g, align 8, !tbaa !10
  %21 = tail call i32 (ptr, ptr, i32, i64, i64, ptr, ...) @H5E_printf_stack(ptr noundef nonnull @.str, ptr noundef nonnull @__func__.H5HF__hdr_finish_init, i32 noundef 284, i64 noundef %19, i64 noundef %20, ptr noundef nonnull @.str.8) #7
  br label %22

22:                                               ; preds = %11, %18, %15, %1
  %.0 = phi i32 [ -1, %11 ], [ -1, %18 ], [ 0, %15 ], [ 0, %1 ]
  ret i32 %.0
}